(lp1
(lp2
I0
aI0
aI0
aa(lp3
I6
aI0
aI0
aa(lp4
I25
aI3
aI0
aa(lp5
I16
aI0
aI0
aa(lp6
I21
aI2
aI0
aa(lp7
I45
aI7
aI0
aa(lp8
I17
aI5
aI0
aa(lp9
I27
aI11
aI0
aa(lp10
I2
aI0
aI0
aa(lp11
I2
aI1
aI0
aa(lp12
I50
aI10
aI0
aa(lp13
I14
aI4
aI0
aa(lp14
I6
aI0
aI0
aa(lp15
I9
aI0
aI0
aa(lp16
I26
aI11
aI0
aa(lp17
I12
aI3
aI0
aa(lp18
I0
aI0
aI0
aa(lp19
I20
aI3
aI0
aa(lp20
I0
aI0
aI0
aa(lp21
I40
aI17
aI0
aa(lp22
I19
aI0
aI0
aa(lp23
I3
aI0
aI0
aa(lp24
I6
aI3
aI0
aa(lp25
I15
aI8
aI0
aa(lp26
I4
aI1
aI0
aa(lp27
I0
aI0
aI0
aa(lp28
I43
aI4
aI0
aa(lp29
I11
aI2
aI0
aa(lp30
I69
aI17
aI0
aa(lp31
I39
aI17
aI0
aa(lp32
I46
aI14
aI0
aa(lp33
I46
aI30
aI0
aa(lp34
I12
aI0
aI0
aa(lp35
I17
aI5
aI0
aa(lp36
I11
aI5
aI0
aa(lp37
I4
aI1
aI0
aa(lp38
I2
aI1
aI0
aa(lp39
I15
aI8
aI0
aa(lp40
I5
aI0
aI0
aa(lp41
I7
aI3
aI0
aa(lp42
I8
aI5
aI0
aa(lp43
I9
aI7
aI0
aa(lp44
I11
aI5
aI0
aa(lp45
I157
aI4
aI0
aa(lp46
I60
aI9
aI0
aa(lp47
I34
aI10
aI0
aa(lp48
I14
aI5
aI0
aa(lp49
I27
aI7
aI0
aa(lp50
I2
aI1
aI0
aa(lp51
I39
aI9
aI0
aa(lp52
I7
aI2
aI0
aa(lp53
I20
aI3
aI0
aa(lp54
I1
aI0
aI0
aa(lp55
I5
aI4
aI0
aa(lp56
I189
aI95
aI0
aa(lp57
I28
aI14
aI0
aa(lp58
I23
aI12
aI0
aa(lp59
I131
aI39
aI0
aa(lp60
I15
aI1
aI0
aa(lp61
I6
aI5
aI0
aa(lp62
I42
aI19
aI0
aa(lp63
I30
aI4
aI0
aa(lp64
I70
aI16
aI0
aa(lp65
I6
aI4
aI0
aa(lp66
I6
aI2
aI0
aa(lp67
I29
aI14
aI0
aa(lp68
I4
aI0
aI0
aa(lp69
I21
aI6
aI0
aa(lp70
I18
aI6
aI0
aa(lp71
I49
aI12
aI0
aa(lp72
I19
aI2
aI0
aa(lp73
I26
aI13
aI0
aa(lp74
I9
aI4
aI0
aa(lp75
I10
aI6
aI0
aa(lp76
I1
aI0
aI0
aa(lp77
I21
aI14
aI0
aa(lp78
I10
aI3
aI0
aa(lp79
I0
aI0
aI0
aa(lp80
I46
aI21
aI0
aa(lp81
I6
aI5
aI0
aa(lp82
I9
aI1
aI0
aa(lp83
I3
aI0
aI0
aa(lp84
I20
aI2
aI0
aa(lp85
I2
aI0
aI0
aa(lp86
I5
aI0
aI0
aa(lp87
I44
aI7
aI0
aa(lp88
I4
aI2
aI0
aa(lp89
I15
aI14
aI0
aa(lp90
I1
aI0
aI0
aa(lp91
I0
aI0
aI0
aa(lp92
I11
aI5
aI0
aa(lp93
I9
aI8
aI0
aa(lp94
I4
aI0
aI0
aa(lp95
I30
aI4
aI0
aa(lp96
I0
aI0
aI0
aa(lp97
I30
aI6
aI0
aa(lp98
I1
aI0
aI0
aa(lp99
I14
aI0
aI0
aa(lp100
I20
aI9
aI0
aa(lp101
I26
aI17
aI0
aa(lp102
I6
aI4
aI0
aa(lp103
I0
aI0
aI0
aa(lp104
I10
aI16
aI0
aa(lp105
I27
aI13
aI0
aa(lp106
I6
aI3
aI0
aa(lp107
I11
aI3
aI0
aa(lp108
I6
aI0
aI0
aa(lp109
I7
aI1
aI0
aa(lp110
I78
aI18
aI0
aa(lp111
I7
aI3
aI0
aa(lp112
I6
aI2
aI0
aa(lp113
I9
aI4
aI0
aa(lp114
I16
aI7
aI0
aa(lp115
I8
aI1
aI0
aa(lp116
I13
aI8
aI0
aa(lp117
I9
aI4
aI0
aa(lp118
I8
aI0
aI0
aa(lp119
I11
aI7
aI0
aa(lp120
I29
aI9
aI0
aa(lp121
I10
aI6
aI0
aa(lp122
I25
aI6
aI0
aa(lp123
I78
aI33
aI0
aa(lp124
I23
aI6
aI0
aa(lp125
I20
aI4
aI0
aa(lp126
I14
aI1
aI0
aa(lp127
I13
aI22
aI0
aa(lp128
I2
aI0
aI0
aa(lp129
I40
aI10
aI0
aa(lp130
I5
aI4
aI0
aa(lp131
I15
aI5
aI0
aa(lp132
I42
aI9
aI0
aa(lp133
I43
aI9
aI0
aa(lp134
I6
aI1
aI0
aa(lp135
I5
aI0
aI0
aa(lp136
I18
aI3
aI0
aa(lp137
I23
aI5
aI0
aa(lp138
I54
aI9
aI0
aa(lp139
I118
aI89
aI0
aa(lp140
I3
aI2
aI0
aa(lp141
I25
aI10
aI0
aa(lp142
I13
aI5
aI0
aa(lp143
I15
aI11
aI0
aa(lp144
I1
aI0
aI0
aa(lp145
I3
aI1
aI0
aa(lp146
I4
aI2
aI0
aa(lp147
I52
aI20
aI0
aa(lp148
I44
aI15
aI0
aa(lp149
I2
aI0
aI0
aa(lp150
I4
aI1
aI0
aa(lp151
I42
aI8
aI0
aa(lp152
I18
aI4
aI0
aa(lp153
I7
aI3
aI0
aa(lp154
I11
aI3
aI0
aa(lp155
I4
aI1
aI0
aa(lp156
I6
aI1
aI0
aa(lp157
I6
aI1
aI0
aa(lp158
I6
aI2
aI0
aa(lp159
I11
aI5
aI0
aa(lp160
I20
aI2
aI0
aa(lp161
I3
aI1
aI0
aa(lp162
I2
aI0
aI0
aa(lp163
I62
aI18
aI0
aa(lp164
I17
aI4
aI0
aa(lp165
I51
aI3
aI0
aa(lp166
I19
aI2
aI0
aa(lp167
I1
aI0
aI0
aa(lp168
I4
aI0
aI0
aa(lp169
I7
aI1
aI0
aa(lp170
I1
aI0
aI0
aa(lp171
I4
aI1
aI0
aa(lp172
I11
aI10
aI0
aa(lp173
I19
aI5
aI0
aa(lp174
I38
aI10
aI0
aa(lp175
I14
aI13
aI0
aa(lp176
I0
aI0
aI0
aa(lp177
I19
aI0
aI0
aa(lp178
I21
aI12
aI0
aa(lp179
I32
aI10
aI0
aa(lp180
I19
aI10
aI0
aa(lp181
I11
aI3
aI0
aa(lp182
I2
aI0
aI0
aa(lp183
I42
aI7
aI0
aa(lp184
I32
aI12
aI0
aa(lp185
I15
aI2
aI0
aa(lp186
I30
aI24
aI0
aa(lp187
I12
aI6
aI0
aa(lp188
I26
aI13
aI0
aa(lp189
I22
aI5
aI0
aa(lp190
I35
aI18
aI0
aa(lp191
I63
aI32
aI0
aa(lp192
I64
aI22
aI0
aa(lp193
I54
aI44
aI0
aa(lp194
I2
aI1
aI0
aa(lp195
I12
aI0
aI0
aa(lp196
I2
aI0
aI0
aa(lp197
I13
aI4
aI0
aa(lp198
I9
aI6
aI0
aa(lp199
I8
aI6
aI0
aa(lp200
I4
aI2
aI0
aa(lp201
I2
aI0
aI0
aa(lp202
I0
aI0
aI0
aa(lp203
I4
aI0
aI0
aa(lp204
I4
aI2
aI0
aa(lp205
I19
aI7
aI0
aa(lp206
I1
aI0
aI0
aa(lp207
I61
aI25
aI0
aa(lp208
I37
aI17
aI0
aa(lp209
I31
aI16
aI0
aa(lp210
I4
aI0
aI0
aa(lp211
I15
aI8
aI0
aa(lp212
I72
aI26
aI0
aa(lp213
I8
aI0
aI0
aa(lp214
I8
aI7
aI0
aa(lp215
I8
aI4
aI0
aa(lp216
I17
aI2
aI0
aa(lp217
I44
aI13
aI0
aa(lp218
I15
aI8
aI0
aa(lp219
I7
aI2
aI0
aa(lp220
I8
aI0
aI0
aa(lp221
I2
aI1
aI0
aa(lp222
I20
aI13
aI0
aa(lp223
I2
aI1
aI0
aa(lp224
I6
aI1
aI0
aa(lp225
I0
aI0
aI0
aa(lp226
I9
aI3
aI0
aa(lp227
I10
aI6
aI0
aa(lp228
I4
aI2
aI0
aa(lp229
I7
aI2
aI0
aa(lp230
I3
aI0
aI0
aa(lp231
I9
aI7
aI0
aa(lp232
I0
aI0
aI0
aa(lp233
I4
aI0
aI0
aa(lp234
I2
aI0
aI0
aa(lp235
I18
aI3
aI0
aa(lp236
I20
aI2
aI0
aa(lp237
I11
aI1
aI0
aa(lp238
I1
aI0
aI0
aa(lp239
I14
aI9
aI0
aa(lp240
I69
aI34
aI0
aa(lp241
I9
aI3
aI0
aa(lp242
I14
aI0
aI0
aa(lp243
I4
aI0
aI0
aa(lp244
I24
aI1
aI0
aa(lp245
I10
aI0
aI0
aa(lp246
I3
aI2
aI0
aa(lp247
I9
aI3
aI0
aa(lp248
I1
aI0
aI0
aa(lp249
I2
aI1
aI0
aa(lp250
I6
aI0
aI0
aa(lp251
I46
aI13
aI0
aa(lp252
I20
aI0
aI0
aa(lp253
I2
aI0
aI0
aa(lp254
I7
aI0
aI0
aa(lp255
I0
aI0
aI0
aa(lp256
I84
aI31
aI0
aa(lp257
I9
aI4
aI0
aa(lp258
I26
aI28
aI0
aa(lp259
I28
aI8
aI0
aa(lp260
I6
aI0
aI0
aa(lp261
I82
aI33
aI0
aa(lp262
I6
aI0
aI0
aa(lp263
I9
aI0
aI0
aa(lp264
I2
aI1
aI0
aa(lp265
I78
aI28
aI0
aa(lp266
I3
aI1
aI0
aa(lp267
I26
aI3
aI0
aa(lp268
I58
aI22
aI0
aa(lp269
I4
aI0
aI0
aa(lp270
I10
aI4
aI0
aa(lp271
I6
aI0
aI0
aa(lp272
I81
aI23
aI0
aa(lp273
I48
aI26
aI0
aa(lp274
I44
aI13
aI0
aa(lp275
I2
aI1
aI0
aa(lp276
I81
aI24
aI0
aa(lp277
I3
aI1
aI0
aa(lp278
I3
aI2
aI0
aa(lp279
I3
aI1
aI0
aa(lp280
I8
aI6
aI0
aa(lp281
I7
aI1
aI0
aa(lp282
I8
aI2
aI0
aa(lp283
I8
aI0
aI0
aa(lp284
I9
aI2
aI0
aa(lp285
I75
aI23
aI0
aa(lp286
I28
aI5
aI0
aa(lp287
I21
aI6
aI0
aa(lp288
I18
aI2
aI0
aa(lp289
I8
aI5
aI0
aa(lp290
I113
aI23
aI0
aa(lp291
I26
aI3
aI0
aa(lp292
I1
aI0
aI0
aa(lp293
I39
aI20
aI0
aa(lp294
I6
aI0
aI0
aa(lp295
I4
aI1
aI0
aa(lp296
I30
aI21
aI0
aa(lp297
I7
aI3
aI0
aa(lp298
I42
aI1
aI0
aa(lp299
I57
aI12
aI0
aa(lp300
I4
aI0
aI0
aa(lp301
I23
aI13
aI0
aa(lp302
I8
aI4
aI0
aa(lp303
I7
aI2
aI0
aa(lp304
I9
aI6
aI0
aa(lp305
I11
aI0
aI0
aa(lp306
I62
aI15
aI0
aa(lp307
I7
aI4
aI0
aa(lp308
I6
aI4
aI0
aa(lp309
I1
aI0
aI0
aa(lp310
I5
aI2
aI0
aa(lp311
I1
aI0
aI0
aa(lp312
I8
aI4
aI0
aa(lp313
I138
aI13
aI0
aa(lp314
I5
aI0
aI0
aa(lp315
I52
aI15
aI0
aa(lp316
I4
aI0
aI0
aa(lp317
I5
aI0
aI0
aa(lp318
I76
aI20
aI0
aa(lp319
I8
aI0
aI0
aa(lp320
I33
aI0
aI0
aa(lp321
I9
aI0
aI0
aa(lp322
I0
aI0
aI0
aa(lp323
I19
aI10
aI0
aa(lp324
I15
aI3
aI0
aa(lp325
I44
aI11
aI0
aa(lp326
I1
aI0
aI0
aa(lp327
I25
aI8
aI0
aa(lp328
I16
aI0
aI0
aa(lp329
I2
aI0
aI0
aa(lp330
I5
aI3
aI0
aa(lp331
I0
aI0
aI0
aa(lp332
I5
aI3
aI0
aa(lp333
I33
aI16
aI0
aa(lp334
I14
aI3
aI0
aa(lp335
I49
aI28
aI0
aa(lp336
I118
aI23
aI0
aa(lp337
I38
aI13
aI0
aa(lp338
I31
aI6
aI0
aa(lp339
I41
aI21
aI0
aa(lp340
I3
aI0
aI0
aa(lp341
I2
aI1
aI0
aa(lp342
I38
aI4
aI0
aa(lp343
I12
aI3
aI0
aa(lp344
I17
aI8
aI0
aa(lp345
I10
aI2
aI0
aa(lp346
I6
aI3
aI0
aa(lp347
I3
aI0
aI0
aa(lp348
I3
aI0
aI0
aa(lp349
I7
aI3
aI0
aa(lp350
I9
aI3
aI0
aa(lp351
I7
aI4
aI0
aa(lp352
I16
aI8
aI0
aa(lp353
I13
aI7
aI0
aa(lp354
I117
aI50
aI0
aa(lp355
I3
aI1
aI0
aa(lp356
I71
aI20
aI0
aa(lp357
I10
aI0
aI0
aa(lp358
I45
aI44
aI0
aa(lp359
I7
aI2
aI0
aa(lp360
I8
aI4
aI0
aa(lp361
I4
aI1
aI0
aa(lp362
I8
aI0
aI0
aa(lp363
I108
aI17
aI0
aa(lp364
I49
aI4
aI0
aa(lp365
I7
aI5
aI0
aa(lp366
I37
aI11
aI0
aa(lp367
I13
aI1
aI0
aa(lp368
I29
aI9
aI0
aa(lp369
I33
aI30
aI0
aa(lp370
I44
aI11
aI0
aa(lp371
I2
aI0
aI0
aa(lp372
I30
aI0
aI0
aa(lp373
I46
aI12
aI0
aa(lp374
I1
aI0
aI0
aa(lp375
I5
aI1
aI0
aa(lp376
I2
aI1
aI0
aa(lp377
I41
aI4
aI0
aa(lp378
I33
aI4
aI0
aa(lp379
I0
aI0
aI0
aa(lp380
I38
aI2
aI0
aa(lp381
I7
aI2
aI0
aa(lp382
I12
aI5
aI0
aa(lp383
I62
aI16
aI0
aa(lp384
I5
aI2
aI0
aa(lp385
I86
aI27
aI0
aa(lp386
I18
aI1
aI0
aa(lp387
I0
aI0
aI0
aa(lp388
I9
aI6
aI0
aa(lp389
I21
aI1
aI0
aa(lp390
I40
aI6
aI0
aa(lp391
I14
aI5
aI0
aa(lp392
I8
aI1
aI0
aa(lp393
I51
aI9
aI0
aa(lp394
I70
aI42
aI0
aa(lp395
I16
aI11
aI0
aa(lp396
I20
aI0
aI0
aa(lp397
I37
aI14
aI0
aa(lp398
I81
aI10
aI0
aa(lp399
I2
aI0
aI0
aa(lp400
I0
aI0
aI0
aa(lp401
I2
aI0
aI0
aa(lp402
I19
aI9
aI0
aa(lp403
I2
aI0
aI0
aa(lp404
I0
aI0
aI0
aa(lp405
I40
aI20
aI0
aa(lp406
I2
aI0
aI0
aa(lp407
I7
aI0
aI0
aa(lp408
I35
aI10
aI0
aa(lp409
I97
aI12
aI0
aa(lp410
I40
aI12
aI0
aa(lp411
I7
aI5
aI0
aa(lp412
I12
aI2
aI0
aa(lp413
I1
aI0
aI0
aa(lp414
I67
aI23
aI0
aa(lp415
I6
aI3
aI0
aa(lp416
I11
aI8
aI0
aa(lp417
I0
aI0
aI0
aa(lp418
I35
aI7
aI0
aa(lp419
I19
aI12
aI0
aa(lp420
I13
aI4
aI0
aa(lp421
I33
aI15
aI0
aa(lp422
I15
aI8
aI0
aa(lp423
I0
aI0
aI0
aa(lp424
I8
aI7
aI0
aa(lp425
I17
aI6
aI0
aa(lp426
I38
aI11
aI0
aa(lp427
I14
aI8
aI0
aa(lp428
I0
aI0
aI0
aa(lp429
I47
aI8
aI0
aa(lp430
I9
aI8
aI0
aa(lp431
I1
aI0
aI0
aa(lp432
I4
aI1
aI0
aa(lp433
I10
aI5
aI0
aa(lp434
I12
aI8
aI0
aa(lp435
I41
aI8
aI0
aa(lp436
I2
aI0
aI0
aa(lp437
I43
aI13
aI0
aa(lp438
I11
aI0
aI0
aa(lp439
I31
aI1
aI0
aa(lp440
I11
aI4
aI0
aa(lp441
I5
aI2
aI0
aa(lp442
I2
aI0
aI0
aa(lp443
I23
aI3
aI0
aa(lp444
I40
aI13
aI0
aa(lp445
I43
aI11
aI0
aa(lp446
I0
aI0
aI0
aa(lp447
I131
aI15
aI0
aa(lp448
I76
aI28
aI0
aa(lp449
I28
aI3
aI0
aa(lp450
I36
aI4
aI0
aa(lp451
I54
aI4
aI0
aa(lp452
I4
aI0
aI0
aa(lp453
I7
aI1
aI0
aa(lp454
I11
aI2
aI0
aa(lp455
I18
aI0
aI0
aa(lp456
I18
aI5
aI0
aa(lp457
I10
aI4
aI0
aa(lp458
I6
aI0
aI0
aa(lp459
I3
aI2
aI0
aa(lp460
I40
aI10
aI0
aa(lp461
I6
aI3
aI0
aa(lp462
I3
aI1
aI0
aa(lp463
I5
aI2
aI0
aa(lp464
I42
aI4
aI0
aa(lp465
I52
aI6
aI0
aa(lp466
I74
aI30
aI0
aa(lp467
I8
aI4
aI0
aa(lp468
I5
aI2
aI0
aa(lp469
I62
aI22
aI0
aa(lp470
I53
aI11
aI0
aa(lp471
I77
aI15
aI0
aa(lp472
I12
aI4
aI0
aa(lp473
I0
aI0
aI0
aa(lp474
I1
aI0
aI0
aa(lp475
I1
aI0
aI0
aa(lp476
I19
aI5
aI0
aa(lp477
I8
aI3
aI0
aa(lp478
I3
aI1
aI0
aa(lp479
I8
aI3
aI0
aa(lp480
I13
aI3
aI0
aa(lp481
I12
aI0
aI0
aa(lp482
I6
aI1
aI0
aa(lp483
I28
aI7
aI0
aa(lp484
I4
aI1
aI0
aa(lp485
I10
aI2
aI0
aa(lp486
I35
aI8
aI0
aa(lp487
I21
aI2
aI0
aa(lp488
I0
aI0
aI0
aa(lp489
I2
aI0
aI0
aa(lp490
I27
aI6
aI0
aa(lp491
I10
aI0
aI0
aa(lp492
I5
aI0
aI0
aa(lp493
I7
aI1
aI0
aa(lp494
I10
aI5
aI0
aa(lp495
I8
aI3
aI0
aa(lp496
I73
aI1
aI0
aa(lp497
I12
aI6
aI0
aa(lp498
I22
aI5
aI0
aa(lp499
I7
aI4
aI0
aa(lp500
I30
aI20
aI0
aa(lp501
I10
aI0
aI0
aa(lp502
I95
aI24
aI0
aa(lp503
I10
aI6
aI0
aa(lp504
I4
aI2
aI0
aa(lp505
I0
aI0
aI0
aa(lp506
I26
aI11
aI0
aa(lp507
I64
aI13
aI0
aa(lp508
I66
aI23
aI0
aa(lp509
I52
aI18
aI0
aa(lp510
I8
aI5
aI0
aa(lp511
I73
aI15
aI0
aa(lp512
I0
aI0
aI0
aa(lp513
I5
aI2
aI0
aa(lp514
I23
aI1
aI0
aa(lp515
I13
aI15
aI0
aa(lp516
I25
aI3
aI0
aa(lp517
I46
aI6
aI0
aa(lp518
I4
aI1
aI0
aa(lp519
I5
aI3
aI0
aa(lp520
I21
aI3
aI0
aa(lp521
I43
aI14
aI0
aa(lp522
I35
aI18
aI0
aa(lp523
I32
aI5
aI0
aa(lp524
I11
aI9
aI0
aa(lp525
I8
aI2
aI0
aa(lp526
I9
aI1
aI0
aa(lp527
I2
aI0
aI0
aa(lp528
I3
aI1
aI0
aa(lp529
I0
aI0
aI0
aa(lp530
I33
aI9
aI0
aa(lp531
I12
aI5
aI0
aa(lp532
I32
aI12
aI0
aa(lp533
I19
aI6
aI0
aa(lp534
I13
aI2
aI0
aa(lp535
I53
aI19
aI0
aa(lp536
I3
aI0
aI0
aa(lp537
I101
aI28
aI0
aa(lp538
I14
aI6
aI0
aa(lp539
I9
aI1
aI0
aa(lp540
I9
aI0
aI0
aa(lp541
I4
aI3
aI0
aa(lp542
I100
aI10
aI0
aa(lp543
I9
aI2
aI0
aa(lp544
I29
aI4
aI0
aa(lp545
I3
aI0
aI0
aa(lp546
I37
aI9
aI0
aa(lp547
I8
aI1
aI0
aa(lp548
I9
aI3
aI0
aa(lp549
I27
aI7
aI0
aa(lp550
I5
aI1
aI0
aa(lp551
I11
aI3
aI0
aa(lp552
I12
aI5
aI0
aa(lp553
I5
aI2
aI0
aa(lp554
I4
aI3
aI0
aa(lp555
I11
aI1
aI0
aa(lp556
I8
aI4
aI0
aa(lp557
I40
aI19
aI0
aa(lp558
I13
aI0
aI0
aa(lp559
I40
aI18
aI0
aa(lp560
I68
aI7
aI0
aa(lp561
I48
aI5
aI0
aa(lp562
I61
aI5
aI0
aa(lp563
I28
aI6
aI0
aa(lp564
I8
aI2
aI0
aa(lp565
I92
aI18
aI0
aa(lp566
I76
aI21
aI0
aa(lp567
I2
aI1
aI0
aa(lp568
I118
aI6
aI0
aa(lp569
I89
aI8
aI0
aa(lp570
I129
aI26
aI0
aa(lp571
I105
aI23
aI0
aa(lp572
I88
aI21
aI0
aa(lp573
I80
aI9
aI0
aa.